; Function Attrs: mustprogress uwtable
define hidden noundef zeroext i1 @_ZN15model_evaluator9are_equalEP4exprS1_(ptr nocapture noundef nonnull readonly align 8 dereferenceable(8) %this, ptr noundef %s, ptr noundef %t) local_unnamed_addr #3 align 2 personality ptr @__gxx_personality_v0 {
entry:
  %t1 = alloca %class.obj_ref, align 8
  %t2 = alloca %class.obj_ref, align 8
  %0 = load ptr, ptr %this, align 8
  %m_manager.i.i = getelementptr inbounds i8, ptr %0, i64 8
  %1 = load ptr, ptr %m_manager.i.i, align 8
  %call2 = tail call noundef zeroext i1 @_ZNK11ast_manager9are_equalEP4exprS1_(ptr noundef nonnull align 8 dereferenceable(976) %1, ptr noundef %s, ptr noundef %t)
  br i1 %call2, label %return, label %if.end

if.end:                                           ; preds = %entry
  %2 = load ptr, ptr %this, align 8
  %m_manager.i.i6 = getelementptr inbounds i8, ptr %2, i64 8
  %3 = load ptr, ptr %m_manager.i.i6, align 8
  %call4 = tail call noundef zeroext i1 @_ZNK11ast_manager12are_distinctEP4exprS1_(ptr noundef nonnull align 8 dereferenceable(976) %3, ptr noundef %s, ptr noundef %t)
  br i1 %call4, label %return, label %invoke.cont

invoke.cont:                                      ; preds = %if.end
  %4 = load ptr, ptr %this, align 8
  %m_manager.i.i7 = getelementptr inbounds i8, ptr %4, i64 8
  %5 = load ptr, ptr %m_manager.i.i7, align 8
  store ptr null, ptr %t1, align 8
  %m_manager.i = getelementptr inbounds i8, ptr %t1, i64 8
  store ptr %5, ptr %m_manager.i, align 8
  store ptr null, ptr %t2, align 8
  %m_manager.i9 = getelementptr inbounds i8, ptr %t2, i64 8
  store ptr %5, ptr %m_manager.i9, align 8
  %call12 = invoke noundef zeroext i1 @_ZN15model_evaluator4evalEP4exprR7obj_refIS0_11ast_managerEb(ptr noundef nonnull align 8 dereferenceable(8) %this, ptr noundef %t, ptr noundef nonnull align 8 dereferenceable(16) %t1, i1 noundef zeroext true)
          to label %invoke.cont11 unwind label %lpad10

invoke.cont11:                                    ; preds = %invoke.cont
  %call14 = invoke noundef zeroext i1 @_ZN15model_evaluator4evalEP4exprR7obj_refIS0_11ast_managerEb(ptr noundef nonnull align 8 dereferenceable(8) %this, ptr noundef %s, ptr noundef nonnull align 8 dereferenceable(16) %t2, i1 noundef zeroext true)
          to label %invoke.cont15 unwind label %lpad10

invoke.cont15:                                    ; preds = %invoke.cont11
  %6 = load ptr, ptr %this, align 8
  %m_manager.i.i10 = getelementptr inbounds i8, ptr %6, i64 8
  %7 = load ptr, ptr %m_manager.i.i10, align 8
  %8 = load ptr, ptr %t1, align 8
  %9 = load ptr, ptr %t2, align 8
  %call22 = invoke noundef zeroext i1 @_ZNK11ast_manager9are_equalEP4exprS1_(ptr noundef nonnull align 8 dereferenceable(976) %7, ptr noundef %8, ptr noundef %9)
          to label %invoke.cont21 unwind label %lpad10

invoke.cont21:                                    ; preds = %invoke.cont15
  %tobool.not.i.i = icmp eq ptr %9, null
  br i1 %tobool.not.i.i, label %_ZN7obj_refI4expr11ast_managerED2Ev.exit, label %if.then.i.i.i

if.then.i.i.i:                                    ; preds = %invoke.cont21
  %10 = load ptr, ptr %m_manager.i9, align 8
  %m_ref_count.i.i.i.i = getelementptr inbounds i8, ptr %9, i64 8
  %11 = load i32, ptr %m_ref_count.i.i.i.i, align 4
  %dec.i.i.i.i = add i32 %11, -1
  store i32 %dec.i.i.i.i, ptr %m_ref_count.i.i.i.i, align 4
  %cmp.i.i.i = icmp eq i32 %dec.i.i.i.i, 0
  br i1 %cmp.i.i.i, label %if.then2.i.i.i, label %_ZN7obj_refI4expr11ast_managerED2Ev.exit

if.then2.i.i.i:                                   ; preds = %if.then.i.i.i
  invoke void @_ZN11ast_manager11delete_nodeEP3ast(ptr noundef nonnull align 8 dereferenceable(976) %10, ptr noundef nonnull %9)
          to label %_ZN7obj_refI4expr11ast_managerED2Ev.exit unwind label %terminate.lpad.i

terminate.lpad.i:                                 ; preds = %if.then2.i.i.i
  %12 = landingpad { ptr, i32 }
          catch ptr null
  %13 = extractvalue { ptr, i32 } %12, 0
  tail call void @__clang_call_terminate(ptr %13) #19
  unreachable

_ZN7obj_refI4expr11ast_managerED2Ev.exit:         ; preds = %invoke.cont21, %if.then.i.i.i, %if.then2.i.i.i
  %tobool.not.i.i12 = icmp eq ptr %8, null
  br i1 %tobool.not.i.i12, label %return, label %if.then.i.i.i13

if.then.i.i.i13:                                  ; preds = %_ZN7obj_refI4expr11ast_managerED2Ev.exit
  %14 = load ptr, ptr %m_manager.i, align 8
  %m_ref_count.i.i.i.i15 = getelementptr inbounds i8, ptr %8, i64 8
  %15 = load i32, ptr %m_ref_count.i.i.i.i15, align 4
  %dec.i.i.i.i16 = add i32 %15, -1
  store i32 %dec.i.i.i.i16, ptr %m_ref_count.i.i.i.i15, align 4
  %cmp.i.i.i17 = icmp eq i32 %dec.i.i.i.i16, 0
  br i1 %cmp.i.i.i17, label %if.then2.i.i.i18, label %return

if.then2.i.i.i18:                                 ; preds = %if.then.i.i.i13
  invoke void @_ZN11ast_manager11delete_nodeEP3ast(ptr noundef nonnull align 8 dereferenceable(976) %14, ptr noundef nonnull %8)
          to label %return unwind label %terminate.lpad.i19

terminate.lpad.i19:                               ; preds = %if.then2.i.i.i18
  %16 = landingpad { ptr, i32 }
          catch ptr null
  %17 = extractvalue { ptr, i32 } %16, 0
  tail call void @__clang_call_terminate(ptr %17) #19
  unreachable

lpad10:                                           ; preds = %invoke.cont15, %invoke.cont11, %invoke.cont
  %18 = landingpad { ptr, i32 }
          cleanup
  call void @_ZN7obj_refI4expr11ast_managerED2Ev(ptr noundef nonnull align 8 dereferenceable(16) %t2) #18
  call void @_ZN7obj_refI4expr11ast_managerED2Ev(ptr noundef nonnull align 8 dereferenceable(16) %t1) #18
  resume { ptr, i32 } %18

return:                                           ; preds = %if.then2.i.i.i18, %if.then.i.i.i13, %_ZN7obj_refI4expr11ast_managerED2Ev.exit, %if.end, %entry
  %retval.0 = phi i1 [ true, %entry ], [ false, %if.end ], [ %call22, %_ZN7obj_refI4expr11ast_managerED2Ev.exit ], [ %call22, %if.then.i.i.i13 ], [ %call22, %if.then2.i.i.i18 ]
  ret i1 %retval.0
}